target datalayout = "e-m:e-p270:32:32-p271:32:32-p272:64:64-i64:64-i128:128-f80:128-n8:16:32:64-S128"
target triple = "x86_64-pc-linux-gnu"

%class.Dict = type { ptr, ptr, i32, i32, ptr, ptr }
%class.bucket = type { i32, i32, ptr }

; Function Attrs: mustprogress nounwind uwtable
define hidden noundef ptr @_ZNK4DictixEPKv(ptr noundef nonnull align 8 dereferenceable(40) %0, ptr noundef %1) #1 align 2 {
  %3 = alloca ptr, align 8
  %4 = alloca ptr, align 8
  %5 = alloca ptr, align 8
  %6 = alloca i32, align 4
  %7 = alloca ptr, align 8
  %8 = alloca i32, align 4
  store ptr %0, ptr %4, align 8
  store ptr %1, ptr %5, align 8
  %9 = load ptr, ptr %4, align 8
  %10 = getelementptr inbounds %class.Dict, ptr %9, i32 0, i32 4
  %11 = load ptr, ptr %10, align 8
  %12 = load ptr, ptr %5, align 8
  %13 = call noundef i32 %11(ptr noundef %12)
  %14 = getelementptr inbounds %class.Dict, ptr %9, i32 0, i32 2
  %15 = load i32, ptr %14, align 8
  %16 = sub i32 %15, 1
  %17 = and i32 %13, %16
  store i32 %17, ptr %6, align 4
  %18 = getelementptr inbounds %class.Dict, ptr %9, i32 0, i32 1
  %19 = load ptr, ptr %18, align 8
  %20 = load i32, ptr %6, align 4
  %21 = zext i32 %20 to i64
  %22 = getelementptr inbounds %class.bucket, ptr %19, i64 %21
  store ptr %22, ptr %7, align 8
  store i32 0, ptr %8, align 4
  br label %23

23:                                               ; preds = %56, %2
  %24 = load i32, ptr %8, align 4
  %25 = load ptr, ptr %7, align 8
  %26 = getelementptr inbounds %class.bucket, ptr %25, i32 0, i32 0
  %27 = load i32, ptr %26, align 8
  %28 = icmp ult i32 %24, %27
  br i1 %28, label %29, label %59

29:                                               ; preds = %23
  %30 = getelementptr inbounds %class.Dict, ptr %9, i32 0, i32 5
  %31 = load ptr, ptr %30, align 8
  %32 = load ptr, ptr %5, align 8
  %33 = load ptr, ptr %7, align 8
  %34 = getelementptr inbounds %class.bucket, ptr %33, i32 0, i32 2
  %35 = load ptr, ptr %34, align 8
  %36 = load i32, ptr %8, align 4
  %37 = load i32, ptr %8, align 4
  %38 = add i32 %36, %37
  %39 = zext i32 %38 to i64
  %40 = getelementptr inbounds ptr, ptr %35, i64 %39
  %41 = load ptr, ptr %40, align 8
  %42 = call noundef i32 %31(ptr noundef %32, ptr noundef %41)
  %43 = icmp ne i32 %42, 0
  br i1 %43, label %55, label %44

44:                                               ; preds = %29
  %45 = load ptr, ptr %7, align 8
  %46 = getelementptr inbounds %class.bucket, ptr %45, i32 0, i32 2
  %47 = load ptr, ptr %46, align 8
  %48 = load i32, ptr %8, align 4
  %49 = load i32, ptr %8, align 4
  %50 = add i32 %48, %49
  %51 = add i32 %50, 1
  %52 = zext i32 %51 to i64
  %53 = getelementptr inbounds ptr, ptr %47, i64 %52
  %54 = load ptr, ptr %53, align 8
  store ptr %54, ptr %3, align 8
  br label %60

55:                                               ; preds = %29
  br label %56

56:                                               ; preds = %55
  %57 = load i32, ptr %8, align 4
  %58 = add i32 %57, 1
  store i32 %58, ptr %8, align 4
  br label %23, !llvm.loop !13

59:                                               ; preds = %23
  store ptr null, ptr %3, align 8
  br label %60

60:                                               ; preds = %59, %44
  %61 = load ptr, ptr %3, align 8
  ret ptr %61
}