; Function Attrs: mustprogress nounwind uwtable
define hidden noundef ptr @_ZNK4DictixEPKv(ptr nocapture noundef nonnull readonly align 8 dereferenceable(40) %0, ptr noundef %1) local_unnamed_addr #0 align 2 {
  %3 = getelementptr inbounds i8, ptr %0, i64 24
  %4 = load ptr, ptr %3, align 8
  %5 = tail call noundef i32 %4(ptr noundef %1) #11
  %6 = getelementptr inbounds i8, ptr %0, i64 16
  %7 = load i32, ptr %6, align 8
  %8 = add i32 %7, -1
  %9 = and i32 %8, %5
  %10 = getelementptr inbounds i8, ptr %0, i64 8
  %11 = load ptr, ptr %10, align 8
  %12 = zext i32 %9 to i64
  %13 = getelementptr inbounds %class.bucket, ptr %11, i64 %12
  %14 = load i32, ptr %13, align 8
  %.not16 = icmp eq i32 %14, 0
  br i1 %.not16, label %.loopexit, label %.lr.ph

.lr.ph:                                           ; preds = %2
  %15 = getelementptr inbounds i8, ptr %0, i64 32
  %16 = getelementptr inbounds i8, ptr %13, i64 8
  br label %21

17:                                               ; preds = %21
  %indvars.iv.next = add nuw nsw i64 %indvars.iv, 1
  %18 = load i32, ptr %13, align 8
  %19 = zext i32 %18 to i64
  %20 = icmp ult i64 %indvars.iv.next, %19
  br i1 %20, label %21, label %.loopexit, !llvm.loop !13

21:                                               ; preds = %.lr.ph, %17
  %indvars.iv = phi i64 [ 0, %.lr.ph ], [ %indvars.iv.next, %17 ]
  %22 = load ptr, ptr %15, align 8
  %23 = load ptr, ptr %16, align 8
  %24 = trunc nuw i64 %indvars.iv to i32
  %25 = shl i32 %24, 1
  %26 = zext i32 %25 to i64
  %27 = getelementptr inbounds ptr, ptr %23, i64 %26
  %28 = load ptr, ptr %27, align 8
  %29 = tail call noundef i32 %22(ptr noundef %1, ptr noundef %28) #11
  %.not = icmp eq i32 %29, 0
  br i1 %.not, label %30, label %17

30:                                               ; preds = %21
  %31 = load ptr, ptr %16, align 8
  %32 = or disjoint i32 %25, 1
  %33 = zext i32 %32 to i64
  %34 = getelementptr inbounds ptr, ptr %31, i64 %33
  %35 = load ptr, ptr %34, align 8
  br label %.loopexit

.loopexit:                                        ; preds = %17, %2, %30
  %.013 = phi ptr [ %35, %30 ], [ null, %2 ], [ null, %17 ]
  ret ptr %.013
}